; Function Attrs: nounwind sspstrong uwtable
define internal void @mirror_pause(ptr noundef readonly captures(none) %job) #0 {
entry:
  %in_flight.i = getelementptr inbounds nuw i8, ptr %job, i64 704
  %0 = load i32, ptr %in_flight.i, align 8
  %cmp.not4.i = icmp eq i32 %0, 0
  br i1 %cmp.not4.i, label %mirror_wait_for_all_io.exit, label %while.body.lr.ph.i

while.body.lr.ph.i:                               ; preds = %entry
  %ops_in_flight.i.i = getelementptr inbounds nuw i8, ptr %job, i64 720
  br label %while.body.i

while.body.i:                                     ; preds = %mirror_wait_for_free_in_flight_slot.exit.i, %while.body.lr.ph.i
  %op.07.i.i = load ptr, ptr %ops_in_flight.i.i, align 8
  %tobool.not8.i.i = icmp eq ptr %op.07.i.i, null
  br i1 %tobool.not8.i.i, label %for.end.i.i, label %for.body.i.i

for.body.i.i:                                     ; preds = %while.body.i, %for.inc.i.i
  %op.09.i.i = phi ptr [ %op.0.i.i, %for.inc.i.i ], [ %op.07.i.i, %while.body.i ]
  %is_pseudo_op.i.i = getelementptr inbounds nuw i8, ptr %op.09.i.i, i64 72
  %1 = load i8, ptr %is_pseudo_op.i.i, align 8
  %tobool1.i.i = trunc i8 %1 to i1
  br i1 %tobool1.i.i, label %for.inc.i.i, label %land.lhs.true.i.i

land.lhs.true.i.i:                                ; preds = %for.body.i.i
  %is_in_flight.i.i = getelementptr inbounds nuw i8, ptr %op.09.i.i, i64 74
  %2 = load i8, ptr %is_in_flight.i.i, align 2
  %tobool2.i.i = trunc i8 %2 to i1
  br i1 %tobool2.i.i, label %land.lhs.true3.i.i, label %for.inc.i.i

land.lhs.true3.i.i:                               ; preds = %land.lhs.true.i.i
  %is_active_write.i.i = getelementptr inbounds nuw i8, ptr %op.09.i.i, i64 73
  %3 = load i8, ptr %is_active_write.i.i, align 1
  %tobool4.i.i = trunc i8 %3 to i1
  br i1 %tobool4.i.i, label %for.inc.i.i, label %mirror_wait_for_free_in_flight_slot.exit.i

for.inc.i.i:                                      ; preds = %land.lhs.true3.i.i, %land.lhs.true.i.i, %for.body.i.i
  %next.i.i = getelementptr inbounds nuw i8, ptr %op.09.i.i, i64 112
  %op.0.i.i = load ptr, ptr %next.i.i, align 8
  %tobool.not.i.i = icmp eq ptr %op.0.i.i, null
  br i1 %tobool.not.i.i, label %for.end.i.i, label %for.body.i.i, !llvm.loop !11

for.end.i.i:                                      ; preds = %while.body.i, %for.inc.i.i
  tail call void @abort() #13
  unreachable

mirror_wait_for_free_in_flight_slot.exit.i:       ; preds = %land.lhs.true3.i.i
  %waiting_requests.i.i = getelementptr inbounds nuw i8, ptr %op.09.i.i, i64 80
  tail call void @qemu_co_queue_wait_impl(ptr noundef nonnull %waiting_requests.i.i, ptr noundef null, i32 noundef 0) #12
  %4 = load i32, ptr %in_flight.i, align 8
  %cmp.not.i = icmp eq i32 %4, 0
  br i1 %cmp.not.i, label %mirror_wait_for_all_io.exit, label %while.body.i, !llvm.loop !12

mirror_wait_for_all_io.exit:                      ; preds = %mirror_wait_for_free_in_flight_slot.exit.i, %entry
  ret void
}